; Function Attrs: mustprogress uwtable
define hidden noundef nonnull align 8 dereferenceable(20) ptr @_ZN7datalog17rule_dependencies10ensure_keyEP9func_decl(ptr noundef nonnull align 8 dereferenceable(88) %0, ptr noundef %1) local_unnamed_addr #3 align 2 personality ptr @__gxx_personality_v0 {
  %3 = alloca %"struct.obj_map<func_decl, obj_hashtable<func_decl> *>::key_data", align 8
  %4 = alloca ptr, align 8
  call void @llvm.lifetime.start.p0(i64 8, ptr nonnull %4) #20
  store ptr null, ptr %4, align 8, !tbaa !52
  call void @llvm.lifetime.start.p0(i64 16, ptr nonnull %3) #20
  store ptr %1, ptr %3, align 8, !tbaa !53
  %.sroa.4.0..sroa_idx.i = getelementptr inbounds nuw i8, ptr %3, i64 8
  store ptr null, ptr %.sroa.4.0..sroa_idx.i, align 8, !tbaa !51
  %5 = call noundef zeroext i1 @_ZN14core_hashtableIN7obj_mapI9func_declP13obj_hashtableIS1_EE13obj_map_entryE8obj_hashINS5_8key_dataEE10default_eqIS8_EE24insert_if_not_there_coreEOS8_RPS6_(ptr noundef nonnull align 8 dereferenceable(24) %0, ptr noundef nonnull align 8 dereferenceable(16) %3, ptr noundef nonnull align 8 dereferenceable(8) %4)
  call void @llvm.lifetime.end.p0(i64 16, ptr nonnull %3) #20
  %6 = load ptr, ptr %4, align 8, !tbaa !52
  call void @llvm.lifetime.end.p0(i64 8, ptr nonnull %4) #20
  %7 = getelementptr inbounds nuw i8, ptr %6, i64 8
  %8 = load ptr, ptr %7, align 8, !tbaa !51
  %.not = icmp eq ptr %8, null
  br i1 %.not, label %9, label %15

9:                                                ; preds = %2
  %10 = call noalias noundef ptr @_ZN6memory8allocateEm(i64 noundef 24)
  %11 = call noalias noundef ptr @_ZN6memory8allocateEm(i64 noundef 64)
  call void @llvm.memset.p0.i64(ptr noundef nonnull align 8 dereferenceable(64) %11, i8 0, i64 64, i1 false), !tbaa !28
  store ptr %11, ptr %10, align 8, !tbaa !31
  %12 = getelementptr inbounds nuw i8, ptr %10, i64 8
  store i32 8, ptr %12, align 8, !tbaa !34
  %13 = getelementptr inbounds nuw i8, ptr %10, i64 12
  store i32 0, ptr %13, align 4, !tbaa !35
  %14 = getelementptr inbounds nuw i8, ptr %10, i64 16
  store i32 0, ptr %14, align 8, !tbaa !36
  store ptr %10, ptr %7, align 8, !tbaa !51
  br label %15

15:                                               ; preds = %9, %2
  %16 = phi ptr [ %10, %9 ], [ %8, %2 ]
  ret ptr %16
}